; Function Attrs: nounwind uwtable
define internal void @hScale16To15_c(ptr noundef readonly captures(none) %0, ptr noundef writeonly captures(none) %1, i32 noundef %2, ptr noundef readonly captures(none) %3, ptr noundef readonly captures(none) %4, ptr noundef readonly captures(none) %5, i32 noundef %6) #0 {
  %8 = getelementptr inbounds nuw i8, ptr %0, i64 72
  %9 = load i32, ptr %8, align 8, !tbaa !43
  %10 = tail call ptr @av_pix_fmt_desc_get(i32 noundef %9) #11
  %11 = getelementptr inbounds nuw i8, ptr %10, i64 40
  %12 = load i32, ptr %11, align 8, !tbaa !44
  %13 = icmp slt i32 %12, 16
  br i1 %13, label %14, label %30

14:                                               ; preds = %7
  %15 = load i32, ptr %8, align 8, !tbaa !43
  %16 = tail call ptr @av_pix_fmt_desc_get(i32 noundef %15) #11
  %.not.i = icmp eq ptr %16, null
  br i1 %.not.i, label %17, label %isAnyRGB.exit

17:                                               ; preds = %14
  tail call void (ptr, i32, ptr, ...) @av_log(ptr noundef null, i32 noundef 0, ptr noundef nonnull @.str.1, ptr noundef nonnull @.str.12, ptr noundef nonnull @.str.13, i32 noundef 859) #11
  tail call void @abort() #12
  unreachable

isAnyRGB.exit:                                    ; preds = %14
  %18 = getelementptr inbounds nuw i8, ptr %16, i64 16
  %19 = load i64, ptr %18, align 8, !tbaa !57
  %20 = and i64 %19, 32
  %21 = icmp eq i64 %20, 0
  %22 = add i32 %15, -11
  %23 = icmp ult i32 %22, -2
  %narrow.not = and i1 %23, %21
  br i1 %narrow.not, label %24, label %35

24:                                               ; preds = %isAnyRGB.exit
  %25 = load i32, ptr %8, align 8, !tbaa !43
  %26 = icmp eq i32 %25, 11
  br i1 %26, label %35, label %27

27:                                               ; preds = %24
  %28 = load i32, ptr %11, align 8, !tbaa !44
  %29 = add nsw i32 %28, -1
  br label %35

30:                                               ; preds = %7
  %31 = add nsw i32 %12, -1
  %32 = getelementptr inbounds nuw i8, ptr %10, i64 16
  %33 = load i64, ptr %32, align 8, !tbaa !57
  %34 = and i64 %33, 512
  %.not = icmp eq i64 %34, 0
  %spec.select = select i1 %.not, i32 %31, i32 15
  br label %35

35:                                               ; preds = %30, %27, %24, %isAnyRGB.exit
  %.031 = phi i32 [ %29, %27 ], [ 13, %24 ], [ 13, %isAnyRGB.exit ], [ %spec.select, %30 ]
  %36 = icmp sgt i32 %2, 0
  br i1 %36, label %.lr.ph41, label %._crit_edge42

.lr.ph41:                                         ; preds = %35
  %37 = icmp sgt i32 %6, 0
  br i1 %37, label %.lr.ph.us.preheader, label %.lr.ph41.split.preheader

.lr.ph41.split.preheader:                         ; preds = %.lr.ph41
  %38 = shl nuw i32 %2, 1
  %39 = zext i32 %38 to i64
  tail call void @llvm.memset.p0.i64(ptr align 2 %1, i8 0, i64 %39, i1 false), !tbaa !94
  br label %._crit_edge42

.lr.ph.us.preheader:                              ; preds = %.lr.ph41
  %40 = zext nneg i32 %6 to i64
  %wide.trip.count49 = zext nneg i32 %2 to i64
  %wide.trip.count = zext nneg i32 %6 to i64
  br label %.lr.ph.us

.lr.ph.us:                                        ; preds = %.lr.ph.us.preheader, %._crit_edge.us
  %indvars.iv46 = phi i64 [ 0, %.lr.ph.us.preheader ], [ %indvars.iv.next47, %._crit_edge.us ]
  %41 = getelementptr inbounds nuw i32, ptr %5, i64 %indvars.iv46
  %42 = load i32, ptr %41, align 4, !tbaa !49
  %43 = mul nuw nsw i64 %indvars.iv46, %40
  %44 = sext i32 %42 to i64
  %invariant.gep = getelementptr i16, ptr %3, i64 %44
  %invariant.gep51 = getelementptr inbounds nuw i16, ptr %4, i64 %43
  br label %45

45:                                               ; preds = %.lr.ph.us, %45
  %indvars.iv = phi i64 [ 0, %.lr.ph.us ], [ %indvars.iv.next, %45 ]
  %.038.us = phi i32 [ 0, %.lr.ph.us ], [ %51, %45 ]
  %gep = getelementptr i16, ptr %invariant.gep, i64 %indvars.iv
  %46 = load i16, ptr %gep, align 2, !tbaa !94
  %47 = zext i16 %46 to i32
  %gep52 = getelementptr inbounds nuw i16, ptr %invariant.gep51, i64 %indvars.iv
  %48 = load i16, ptr %gep52, align 2, !tbaa !94
  %49 = sext i16 %48 to i32
  %50 = mul nsw i32 %49, %47
  %51 = add nsw i32 %50, %.038.us
  %indvars.iv.next = add nuw nsw i64 %indvars.iv, 1
  %exitcond.not = icmp eq i64 %indvars.iv.next, %wide.trip.count
  br i1 %exitcond.not, label %._crit_edge.us, label %45, !llvm.loop !213

._crit_edge.us:                                   ; preds = %45
  %52 = ashr i32 %51, %.031
  %53 = tail call i32 @llvm.smin.i32(i32 %52, i32 32767)
  %54 = trunc i32 %53 to i16
  %55 = getelementptr inbounds nuw i16, ptr %1, i64 %indvars.iv46
  store i16 %54, ptr %55, align 2, !tbaa !94
  %indvars.iv.next47 = add nuw nsw i64 %indvars.iv46, 1
  %exitcond50.not = icmp eq i64 %indvars.iv.next47, %wide.trip.count49
  br i1 %exitcond50.not, label %._crit_edge42, label %.lr.ph.us, !llvm.loop !214

._crit_edge42:                                    ; preds = %._crit_edge.us, %.lr.ph41.split.preheader, %35
  ret void
}